; Function Attrs: nofree nounwind uwtable
define hidden void @zend_dump_op_array_name(ptr nocapture noundef readonly %0) local_unnamed_addr #3 {
  %2 = getelementptr inbounds i8, ptr %0, i64 8
  %3 = load ptr, ptr %2, align 8
  %.not = icmp eq ptr %3, null
  br i1 %.not, label %18, label %4

4:                                                ; preds = %1
  %5 = getelementptr inbounds i8, ptr %0, i64 16
  %6 = load ptr, ptr %5, align 8
  %.not8 = icmp eq ptr %6, null
  br i1 %.not8, label %15, label %7

7:                                                ; preds = %4
  %8 = getelementptr inbounds i8, ptr %6, i64 8
  %9 = load ptr, ptr %8, align 8
  %.not9 = icmp eq ptr %9, null
  br i1 %.not9, label %15, label %10

10:                                               ; preds = %7
  %11 = load ptr, ptr @stderr, align 8
  %12 = getelementptr inbounds i8, ptr %9, i64 24
  %13 = getelementptr inbounds i8, ptr %3, i64 24
  %14 = tail call i32 (ptr, ptr, ...) @fprintf(ptr noundef %11, ptr noundef nonnull @.str.70, ptr noundef nonnull %12, ptr noundef nonnull %13) #8
  br label %21

15:                                               ; preds = %7, %4
  %16 = load ptr, ptr @stderr, align 8
  %17 = getelementptr inbounds i8, ptr %3, i64 24
  %fputs = tail call i32 @fputs(ptr nonnull %17, ptr %16) #7
  br label %21

18:                                               ; preds = %1
  %19 = load ptr, ptr @stderr, align 8
  %20 = tail call i64 @fwrite(ptr nonnull @.str.71, i64 6, i64 1, ptr %19) #7
  br label %21

21:                                               ; preds = %10, %15, %18
  ret void
}